target datalayout = "e-m:e-p270:32:32-p271:32:32-p272:64:64-i64:64-i128:128-f80:128-n8:16:32:64-S128"
target triple = "x86_64-pc-linux-gnu"

@tcpros_handle = internal global ptr null, align 8
@tcpros_desegment = internal global i8 1, align 1

; Function Attrs: null_pointer_is_valid sspstrong uwtable
define internal zeroext i1 @is_rosmsg(ptr noundef %0, ptr noundef %1, i32 noundef %2) #0 {
  %4 = alloca i1, align 1
  %5 = alloca ptr, align 8
  %6 = alloca ptr, align 8
  %7 = alloca i32, align 4
  %8 = alloca i32, align 4
  %9 = alloca i32, align 4
  %10 = alloca i32, align 4
  %11 = alloca i32, align 4
  store ptr %0, ptr %5, align 8
  store ptr %1, ptr %6, align 8
  store i32 %2, ptr %7, align 4
  call void @llvm.lifetime.start.p0(i64 4, ptr %8) #3
  %12 = load ptr, ptr %5, align 8
  %13 = load i32, ptr %7, align 4
  %14 = call i32 @tvb_reported_length_remaining(ptr noundef %12, i32 noundef %13)
  store i32 %14, ptr %8, align 4
  call void @llvm.lifetime.start.p0(i64 4, ptr %9) #3
  store i32 0, ptr %9, align 4
  call void @llvm.lifetime.start.p0(i64 4, ptr %10) #3
  store i32 0, ptr %10, align 4
  %15 = load i32, ptr %8, align 4
  %16 = icmp slt i32 %15, 20
  br i1 %16, label %17, label %18

17:                                               ; preds = %3
  store i1 false, ptr %4, align 1
  store i32 1, ptr %11, align 4
  br label %44

18:                                               ; preds = %3
  %19 = load ptr, ptr %5, align 8
  %20 = load i32, ptr %7, align 4
  %21 = call i32 @tvb_get_letohl(ptr noundef %19, i32 noundef %20)
  store i32 %21, ptr %10, align 4
  %22 = load i32, ptr %10, align 4
  %23 = icmp ult i32 %22, 16
  br i1 %23, label %24, label %25

24:                                               ; preds = %18
  store i1 false, ptr %4, align 1
  store i32 1, ptr %11, align 4
  br label %44

25:                                               ; preds = %18
  %26 = load ptr, ptr %5, align 8
  %27 = load i32, ptr %7, align 4
  %28 = add i32 %27, 4
  %29 = add i32 %28, 4
  %30 = add i32 %29, 8
  %31 = call i32 @tvb_get_letohl(ptr noundef %26, i32 noundef %30)
  store i32 %31, ptr %9, align 4
  %32 = load i32, ptr %9, align 4
  %33 = load i32, ptr %10, align 4
  %34 = sub i32 %33, 16
  %35 = icmp ugt i32 %32, %34
  br i1 %35, label %36, label %37

36:                                               ; preds = %25
  store i1 false, ptr %4, align 1
  store i32 1, ptr %11, align 4
  br label %44

37:                                               ; preds = %25
  %38 = load i32, ptr %8, align 4
  %39 = load i32, ptr %9, align 4
  %40 = add i32 %39, 4
  %41 = icmp ult i32 %38, %40
  br i1 %41, label %42, label %43

42:                                               ; preds = %37
  store i1 false, ptr %4, align 1
  store i32 1, ptr %11, align 4
  br label %44

43:                                               ; preds = %37
  store i1 true, ptr %4, align 1
  store i32 1, ptr %11, align 4
  br label %44

44:                                               ; preds = %43, %42, %36, %24, %17
  call void @llvm.lifetime.end.p0(i64 4, ptr %10) #3
  call void @llvm.lifetime.end.p0(i64 4, ptr %9) #3
  call void @llvm.lifetime.end.p0(i64 4, ptr %8) #3
  %45 = load i1, ptr %4, align 1
  ret i1 %45
}

; Function Attrs: null_pointer_is_valid sspstrong uwtable
define internal zeroext i1 @is_rosclock(ptr noundef %0, ptr noundef %1, i32 noundef %2) #0 {
  %4 = alloca i1, align 1
  %5 = alloca ptr, align 8
  %6 = alloca ptr, align 8
  %7 = alloca i32, align 4
  %8 = alloca i32, align 4
  %9 = alloca i32, align 4
  store ptr %0, ptr %5, align 8
  store ptr %1, ptr %6, align 8
  store i32 %2, ptr %7, align 4
  call void @llvm.lifetime.start.p0(i64 4, ptr %8) #3
  %10 = load ptr, ptr %5, align 8
  %11 = load i32, ptr %7, align 4
  %12 = call i32 @tvb_reported_length_remaining(ptr noundef %10, i32 noundef %11)
  store i32 %12, ptr %8, align 4
  %13 = load i32, ptr %8, align 4
  %14 = icmp ne i32 %13, 12
  br i1 %14, label %15, label %16

15:                                               ; preds = %3
  store i1 false, ptr %4, align 1
  store i32 1, ptr %9, align 4
  br label %23

16:                                               ; preds = %3
  %17 = load ptr, ptr %5, align 8
  %18 = load i32, ptr %7, align 4
  %19 = call i32 @tvb_get_letohl(ptr noundef %17, i32 noundef %18)
  %20 = icmp ne i32 %19, 8
  br i1 %20, label %21, label %22

21:                                               ; preds = %16
  store i1 false, ptr %4, align 1
  store i32 1, ptr %9, align 4
  br label %23

22:                                               ; preds = %16
  store i1 true, ptr %4, align 1
  store i32 1, ptr %9, align 4
  br label %23

23:                                               ; preds = %22, %21, %15
  call void @llvm.lifetime.end.p0(i64 4, ptr %8) #3
  %24 = load i1, ptr %4, align 1
  ret i1 %24
}

; Function Attrs: null_pointer_is_valid sspstrong uwtable
define internal i32 @dissect_tcpros(ptr noundef %0, ptr noundef %1, ptr noundef %2, ptr noundef %3) #0 {
  %5 = alloca ptr, align 8
  %6 = alloca ptr, align 8
  %7 = alloca ptr, align 8
  %8 = alloca ptr, align 8
  store ptr %0, ptr %5, align 8
  store ptr %1, ptr %6, align 8
  store ptr %2, ptr %7, align 8
  store ptr %3, ptr %8, align 8
  %9 = load ptr, ptr %5, align 8
  %10 = load ptr, ptr %6, align 8
  %11 = load ptr, ptr %7, align 8
  %12 = load i8, ptr @tcpros_desegment, align 1, !range !6, !noundef !7
  %13 = trunc i8 %12 to i1
  %14 = load ptr, ptr %8, align 8
  call void @tcp_dissect_pdus(ptr noundef %9, ptr noundef %10, ptr noundef %11, i1 noundef zeroext %13, i32 noundef 4, ptr noundef @get_tcpros_pdu_len, ptr noundef @dissect_tcpros_pdu, ptr noundef %14)
  %15 = load ptr, ptr %5, align 8
  %16 = call i32 @tvb_reported_length(ptr noundef %15)
  ret i32 %16
}

; Function Attrs: null_pointer_is_valid sspstrong uwtable
define internal zeroext i1 @test_tcpros(ptr noundef %0, ptr noundef %1, i32 noundef %2, ptr noundef %3) #0 {
  %5 = alloca i1, align 1
  %6 = alloca ptr, align 8
  %7 = alloca ptr, align 8
  %8 = alloca i32, align 4
  %9 = alloca ptr, align 8
  store ptr %0, ptr %6, align 8
  store ptr %1, ptr %7, align 8
  store i32 %2, ptr %8, align 4
  store ptr %3, ptr %9, align 8
  %10 = load ptr, ptr %7, align 8
  %11 = call i32 @tvb_captured_length(ptr noundef %10)
  %12 = icmp ult i32 %11, 8
  br i1 %12, label %13, label %14

13:                                               ; preds = %4
  store i1 false, ptr %5, align 1
  br label %33

14:                                               ; preds = %4
  %15 = load ptr, ptr %7, align 8
  %16 = load ptr, ptr %6, align 8
  %17 = load i32, ptr %8, align 4
  %18 = call zeroext i1 @is_rosclock(ptr noundef %15, ptr noundef %16, i32 noundef %17)
  br i1 %18, label %19, label %20

19:                                               ; preds = %14
  store i1 true, ptr %5, align 1
  br label %33

20:                                               ; preds = %14
  %21 = load ptr, ptr %7, align 8
  %22 = load ptr, ptr %6, align 8
  %23 = load i32, ptr %8, align 4
  %24 = call zeroext i1 @is_rosmsg(ptr noundef %21, ptr noundef %22, i32 noundef %23)
  br i1 %24, label %25, label %26

25:                                               ; preds = %20
  store i1 true, ptr %5, align 1
  br label %33

26:                                               ; preds = %20
  %27 = load ptr, ptr %7, align 8
  %28 = load ptr, ptr %6, align 8
  %29 = load i32, ptr %8, align 4
  %30 = call zeroext i1 @is_rosconnection_header(ptr noundef %27, ptr noundef %28, i32 noundef %29)
  br i1 %30, label %31, label %32

31:                                               ; preds = %26
  store i1 true, ptr %5, align 1
  br label %33

32:                                               ; preds = %26
  store i1 false, ptr %5, align 1
  br label %33

33:                                               ; preds = %32, %31, %25, %19, %13
  %34 = load i1, ptr %5, align 1
  ret i1 %34
}

; Function Attrs: null_pointer_is_valid sspstrong uwtable
define internal zeroext i1 @dissect_tcpros_heur_tcp(ptr noundef %0, ptr noundef %1, ptr noundef %2, ptr noundef %3) #0 {
  %5 = alloca i1, align 1
  %6 = alloca ptr, align 8
  %7 = alloca ptr, align 8
  %8 = alloca ptr, align 8
  %9 = alloca ptr, align 8
  %10 = alloca ptr, align 8
  %11 = alloca i32, align 4
  store ptr %0, ptr %6, align 8
  store ptr %1, ptr %7, align 8
  store ptr %2, ptr %8, align 8
  store ptr %3, ptr %9, align 8
  call void @llvm.lifetime.start.p0(i64 8, ptr %10) #3
  %12 = load ptr, ptr %7, align 8
  %13 = load ptr, ptr %6, align 8
  %14 = load ptr, ptr %9, align 8
  %15 = call zeroext i1 @test_tcpros(ptr noundef %12, ptr noundef %13, i32 noundef 0, ptr noundef %14)
  br i1 %15, label %17, label %16

16:                                               ; preds = %4
  store i1 false, ptr %5, align 1
  store i32 1, ptr %11, align 4
  br label %27

17:                                               ; preds = %4
  %18 = load ptr, ptr %7, align 8
  %19 = call ptr @find_or_create_conversation(ptr noundef %18)
  store ptr %19, ptr %10, align 8
  %20 = load ptr, ptr %10, align 8
  %21 = load ptr, ptr @tcpros_handle, align 8
  call void @conversation_set_dissector(ptr noundef %20, ptr noundef %21)
  %22 = load ptr, ptr %6, align 8
  %23 = load ptr, ptr %7, align 8
  %24 = load ptr, ptr %8, align 8
  %25 = load ptr, ptr %9, align 8
  %26 = call i32 @dissect_tcpros(ptr noundef %22, ptr noundef %23, ptr noundef %24, ptr noundef %25)
  store i1 true, ptr %5, align 1
  store i32 1, ptr %11, align 4
  br label %27

27:                                               ; preds = %17, %16
  call void @llvm.lifetime.end.p0(i64 8, ptr %10) #3
  %28 = load i1, ptr %5, align 1
  ret i1 %28
}