; Function Attrs: null_pointer_is_valid sspstrong uwtable
define internal noundef zeroext i1 @dissect_tcpros_heur_tcp(ptr noundef %0, ptr noundef %1, ptr noundef %2, ptr noundef %3) #0 {
  %5 = tail call i32 @tvb_captured_length(ptr noundef %0)
  %6 = icmp ult i32 %5, 8
  br i1 %6, label %test_tcpros.exit.thread13, label %7

7:                                                ; preds = %4
  %8 = tail call i32 @tvb_reported_length_remaining(ptr noundef %0, i32 noundef 0)
  %.not.i.i = icmp eq i32 %8, 12
  br i1 %.not.i.i, label %is_rosclock.exit.i, label %is_rosclock.exit.thread.i

is_rosclock.exit.i:                               ; preds = %7
  %9 = tail call i32 @tvb_get_letohl(ptr noundef %0, i32 noundef 0)
  %.not5.i.i = icmp eq i32 %9, 8
  br i1 %.not5.i.i, label %test_tcpros.exit.thread, label %is_rosclock.exit.thread.i

is_rosclock.exit.thread.i:                        ; preds = %is_rosclock.exit.i, %7
  %10 = tail call i32 @tvb_reported_length_remaining(ptr noundef %0, i32 noundef 0)
  %11 = icmp slt i32 %10, 20
  br i1 %11, label %test_tcpros.exit, label %12

12:                                               ; preds = %is_rosclock.exit.thread.i
  %13 = tail call i32 @tvb_get_letohl(ptr noundef %0, i32 noundef 0)
  %14 = icmp ult i32 %13, 16
  br i1 %14, label %test_tcpros.exit, label %15

15:                                               ; preds = %12
  %16 = tail call i32 @tvb_get_letohl(ptr noundef %0, i32 noundef 16)
  %17 = add i32 %13, -16
  %18 = icmp ule i32 %16, %17
  %19 = add nuw i32 %16, 4
  %20 = icmp uge i32 %10, %19
  %or.cond.i = select i1 %18, i1 %20, i1 false
  br i1 %or.cond.i, label %test_tcpros.exit.thread, label %test_tcpros.exit

test_tcpros.exit:                                 ; preds = %is_rosclock.exit.thread.i, %12, %15
  %21 = tail call fastcc zeroext i1 @is_rosconnection_header(ptr noundef %0, i32 noundef 0)
  br i1 %21, label %test_tcpros.exit.thread, label %test_tcpros.exit.thread13

test_tcpros.exit.thread:                          ; preds = %15, %is_rosclock.exit.i, %test_tcpros.exit
  %22 = tail call ptr @find_or_create_conversation(ptr noundef %1)
  %23 = load ptr, ptr @tcpros_handle, align 8
  tail call void @conversation_set_dissector(ptr noundef %22, ptr noundef %23)
  %24 = load i8, ptr @tcpros_desegment, align 1, !range !6, !noundef !7
  %25 = trunc nuw i8 %24 to i1
  tail call void @tcp_dissect_pdus(ptr noundef %0, ptr noundef %1, ptr noundef %2, i1 noundef zeroext %25, i32 noundef 4, ptr noundef nonnull @get_tcpros_pdu_len, ptr noundef nonnull @dissect_tcpros_pdu, ptr noundef %3)
  %26 = tail call i32 @tvb_reported_length(ptr noundef %0)
  br label %test_tcpros.exit.thread13

test_tcpros.exit.thread13:                        ; preds = %4, %test_tcpros.exit, %test_tcpros.exit.thread
  %.0.i11 = phi i1 [ false, %test_tcpros.exit ], [ true, %test_tcpros.exit.thread ], [ false, %4 ]
  ret i1 %.0.i11
}